; Function Attrs: mustprogress nounwind uwtable
define void @_ZN8proxygen21RequestHandlerAdaptor6onBodyESt10unique_ptrIN5folly5IOBufESt14default_deleteIS3_EE(ptr nocapture noundef nonnull readonly align 8 dereferenceable(36) %this, ptr nocapture noundef %c) unnamed_addr #4 align 2 personality ptr @__gxx_personality_v0 {
entry:
  %agg.tmp = alloca %"class.std::unique_ptr.49", align 8
  %upstream_ = getelementptr inbounds i8, ptr %this, i64 16
  %0 = load ptr, ptr %upstream_, align 8
  %tobool.not = icmp eq ptr %0, null
  br i1 %tobool.not, label %return, label %if.end

if.end:                                           ; preds = %entry
  %1 = load i64, ptr %c, align 8
  store i64 %1, ptr %agg.tmp, align 8
  store ptr null, ptr %c, align 8
  %vtable = load ptr, ptr %0, align 8
  %vfn = getelementptr inbounds i8, ptr %vtable, i64 16
  %2 = load ptr, ptr %vfn, align 8
  call void %2(ptr noundef nonnull align 8 dereferenceable(16) %0, ptr noundef nonnull %agg.tmp) #19
  %3 = load ptr, ptr %agg.tmp, align 8
  %cmp.not.i = icmp eq ptr %3, null
  br i1 %cmp.not.i, label %return, label %_ZNKSt14default_deleteIN5folly5IOBufEEclEPS1_.exit.i

_ZNKSt14default_deleteIN5folly5IOBufEEclEPS1_.exit.i: ; preds = %if.end
  call void @_ZN5folly5IOBufD1Ev(ptr noundef nonnull align 8 dereferenceable(56) %3) #19
  call void @_ZN5folly5IOBufdlEPv(ptr noundef nonnull %3) #19
  br label %return

return:                                           ; preds = %_ZNKSt14default_deleteIN5folly5IOBufEEclEPS1_.exit.i, %if.end, %entry
  ret void
}